; Function Attrs: nounwind uwtable
define void @Nf_StoPrintOne(ptr noundef readonly captures(none) %0, i32 noundef %1, i32 noundef %2, i32 noundef %3, i32 noundef %4, i32 %5) local_unnamed_addr #2 {
  %7 = getelementptr inbounds nuw i8, ptr %0, i64 40
  %8 = load ptr, ptr %7, align 8, !tbaa !62
  %9 = sext i32 %4 to i64
  %10 = getelementptr inbounds nuw i8, ptr %0, i64 24
  %11 = load ptr, ptr %10, align 8, !tbaa !74
  %12 = getelementptr inbounds nuw i8, ptr %11, i64 24
  %13 = load ptr, ptr %12, align 8, !tbaa !38
  %14 = getelementptr inbounds nuw i8, ptr %11, i64 8
  %15 = load i32, ptr %14, align 8, !tbaa !39
  %16 = ashr i32 %2, %15
  %17 = sext i32 %16 to i64
  %18 = getelementptr inbounds ptr, ptr %13, i64 %17
  %19 = load ptr, ptr %18, align 8, !tbaa !40
  %20 = load i32, ptr %11, align 8, !tbaa !42
  %21 = getelementptr inbounds nuw i8, ptr %11, i64 12
  %22 = load i32, ptr %21, align 4, !tbaa !43
  %23 = and i32 %22, %2
  %24 = mul nsw i32 %23, %20
  %25 = sext i32 %24 to i64
  %26 = getelementptr inbounds i64, ptr %19, i64 %25
  %.val.i = load i64, ptr %26, align 8, !tbaa !16
  br label %27

27:                                               ; preds = %27, %6
  %indvars.iv.i = phi i64 [ 0, %6 ], [ %indvars.iv.next.i, %27 ]
  %.011.i = phi i32 [ 0, %6 ], [ %spec.select.i, %27 ]
  %28 = trunc nuw nsw i64 %indvars.iv.i to i32
  %29 = shl nuw nsw i32 1, %28
  %30 = zext nneg i32 %29 to i64
  %31 = lshr i64 %.val.i, %30
  %32 = getelementptr inbounds nuw [6 x i64], ptr @s_Truths6Neg, i64 0, i64 %indvars.iv.i
  %33 = load i64, ptr %32, align 8, !tbaa !16
  %34 = xor i64 %31, %.val.i
  %35 = and i64 %34, %33
  %.not9.i = icmp ne i64 %35, 0
  %36 = zext i1 %.not9.i to i32
  %spec.select.i = add nuw nsw i32 %.011.i, %36
  %indvars.iv.next.i = add nuw nsw i64 %indvars.iv.i, 1
  %exitcond.not.i = icmp eq i64 %indvars.iv.next.i, 6
  br i1 %exitcond.not.i, label %Abc_TtSupportSize.exit, label %27, !llvm.loop !75

Abc_TtSupportSize.exit:                           ; preds = %27
  %37 = getelementptr inbounds %struct.Mio_Cell2_t_, ptr %8, i64 %9
  %38 = tail call i32 (ptr, ...) @printf(ptr noundef nonnull dereferenceable(1) @.str, i32 noundef %1)
  %39 = tail call i32 (ptr, ...) @printf(ptr noundef nonnull dereferenceable(1) @.str, i32 noundef %2)
  %40 = tail call i32 (ptr, ...) @printf(ptr noundef nonnull dereferenceable(1) @.str, i32 noundef %3)
  %41 = load ptr, ptr %37, align 8, !tbaa !76
  %42 = tail call i32 (ptr, ...) @printf(ptr noundef nonnull dereferenceable(1) @.str.1, ptr noundef %41)
  %43 = getelementptr inbounds nuw i8, ptr %37, i64 20
  %44 = load float, ptr %43, align 4, !tbaa !3
  %45 = fpext float %44 to double
  %46 = tail call i32 (ptr, ...) @printf(ptr noundef nonnull dereferenceable(1) @.str.2, double noundef %45)
  %47 = getelementptr inbounds nuw i8, ptr %37, i64 16
  %48 = load i32, ptr %47, align 8
  %49 = lshr i32 %48, 28
  %50 = tail call i32 (ptr, ...) @printf(ptr noundef nonnull dereferenceable(1) @.str.3, i32 noundef %49)
  %51 = and i32 %5, 1
  %.not = icmp eq i32 %51, 0
  %.str.5..str.4 = select i1 %.not, ptr @.str.5, ptr @.str.4
  %52 = tail call i32 (ptr, ...) @printf(ptr noundef nonnull dereferenceable(1) %.str.5..str.4)
  %53 = load i32, ptr %47, align 8
  %.not22 = icmp ult i32 %53, 268435456
  br i1 %.not22, label %._crit_edge, label %.lr.ph

.lr.ph:                                           ; preds = %Abc_TtSupportSize.exit
  %54 = lshr i32 %5, 1
  %55 = and i32 %54, 127
  %56 = lshr i32 %5, 8
  br label %57

57:                                               ; preds = %.lr.ph, %57
  %.021 = phi i32 [ 0, %.lr.ph ], [ %66, %57 ]
  %58 = lshr i32 %55, %.021
  %59 = mul nuw nsw i32 %.021, 3
  %60 = lshr i32 %56, %59
  %61 = and i32 %60, 7
  %62 = add nuw nsw i32 %61, 97
  %63 = shl nuw nsw i32 %58, 5
  %64 = and i32 %63, 32
  %65 = sub nuw nsw i32 %62, %64
  %putchar = tail call i32 @putchar(i32 %65)
  %66 = add nuw nsw i32 %.021, 1
  %67 = load i32, ptr %47, align 8
  %68 = lshr i32 %67, 28
  %69 = icmp samesign ult i32 %66, %68
  br i1 %69, label %57, label %._crit_edge, !llvm.loop !77

._crit_edge:                                      ; preds = %57, %Abc_TtSupportSize.exit
  %70 = tail call i32 (ptr, ...) @printf(ptr noundef nonnull dereferenceable(1) @.str.7)
  tail call void @Dau_DsdPrintFromTruth(ptr noundef nonnull %26, i32 noundef %spec.select.i) #26
  ret void
}